; Function Attrs: nounwind uwtable
define noalias nonnull ptr @l_List_forIn_x27_loop___at_Lean_Elab_ComputedFields_setComputedFields___spec__6(ptr readnone captures(none) %0, ptr readnone captures(none) %1, ptr readnone captures(none) %2, ptr noundef %3, ptr noundef %4, ptr readnone captures(none) %5, ptr readnone captures(none) %6, ptr readnone captures(none) %7, ptr readnone captures(none) %8, ptr readnone captures(none) %9, ptr noundef %10) local_unnamed_addr #0 {
  br label %12

12:                                               ; preds = %lean_dec.exit, %11
  %.017 = phi ptr [ %4, %11 ], [ %59, %lean_dec.exit ]
  %.0 = phi ptr [ %3, %11 ], [ %41, %lean_dec.exit ]
  %13 = ptrtoint ptr %.0 to i64
  %14 = and i64 %13, 1
  %.not.i19 = icmp eq i64 %14, 0
  br i1 %.not.i19, label %18, label %15

15:                                               ; preds = %12
  %16 = lshr i64 %13, 1
  %17 = trunc i64 %16 to i32
  br label %lean_obj_tag.exit

18:                                               ; preds = %12
  %19 = getelementptr i8, ptr %.0, i64 4
  %.val.i = load i32, ptr %19, align 4
  %20 = lshr i32 %.val.i, 24
  br label %lean_obj_tag.exit

lean_obj_tag.exit:                                ; preds = %15, %18
  %.0.i = phi i32 [ %17, %15 ], [ %20, %18 ]
  %21 = icmp eq i32 %.0.i, 0
  br i1 %21, label %22, label %29

22:                                               ; preds = %lean_obj_tag.exit
  tail call void @lean_inc_heartbeat() #4
  %23 = tail call noalias ptr @mi_malloc_small(i64 noundef 24) #4
  %24 = icmp eq ptr %23, null
  br i1 %24, label %25, label %lean_alloc_ctor.exit

25:                                               ; preds = %22
  tail call void @lean_internal_panic_out_of_memory() #5
  unreachable

lean_alloc_ctor.exit:                             ; preds = %22
  %26 = getelementptr inbounds nuw i8, ptr %23, i64 4
  store i32 1, ptr %23, align 4, !tbaa !8
  store i32 131096, ptr %26, align 4
  %27 = getelementptr inbounds nuw i8, ptr %23, i64 8
  store ptr %.017, ptr %27, align 8, !tbaa !4
  %28 = getelementptr inbounds nuw i8, ptr %23, i64 16
  store ptr %10, ptr %28, align 8, !tbaa !4
  ret ptr %23

29:                                               ; preds = %lean_obj_tag.exit
  %30 = getelementptr inbounds nuw i8, ptr %.0, i64 8
  %31 = load ptr, ptr %30, align 8, !tbaa !4
  %32 = ptrtoint ptr %31 to i64
  %33 = and i64 %32, 1
  %.not = icmp eq i64 %33, 0
  br i1 %.not, label %34, label %lean_inc.exit18

34:                                               ; preds = %29
  %.val.i20 = load i32, ptr %31, align 4, !tbaa !8
  %35 = icmp sgt i32 %.val.i20, 0
  br i1 %35, label %36, label %38, !prof !13

36:                                               ; preds = %34
  %37 = add nuw i32 %.val.i20, 1
  store i32 %37, ptr %31, align 4, !tbaa !8
  br label %lean_inc.exit18

38:                                               ; preds = %34
  %.not.i21 = icmp eq i32 %.val.i20, 0
  br i1 %.not.i21, label %lean_inc.exit18, label %39

39:                                               ; preds = %38
  tail call void @lean_inc_ref_cold(ptr noundef nonnull %31) #4
  br label %lean_inc.exit18

lean_inc.exit18:                                  ; preds = %39, %38, %36, %29
  %40 = getelementptr inbounds nuw i8, ptr %.0, i64 16
  %41 = load ptr, ptr %40, align 8, !tbaa !4
  %42 = ptrtoint ptr %41 to i64
  %43 = and i64 %42, 1
  %.not25 = icmp eq i64 %43, 0
  br i1 %.not25, label %44, label %lean_inc.exit

44:                                               ; preds = %lean_inc.exit18
  %.val.i22 = load i32, ptr %41, align 4, !tbaa !8
  %45 = icmp sgt i32 %.val.i22, 0
  br i1 %45, label %46, label %48, !prof !13

46:                                               ; preds = %44
  %47 = add nuw i32 %.val.i22, 1
  store i32 %47, ptr %41, align 4, !tbaa !8
  br label %lean_inc.exit

48:                                               ; preds = %44
  %.not.i23 = icmp eq i32 %.val.i22, 0
  br i1 %.not.i23, label %lean_inc.exit, label %49

49:                                               ; preds = %48
  tail call void @lean_inc_ref_cold(ptr noundef nonnull %41) #4
  br label %lean_inc.exit

lean_inc.exit:                                    ; preds = %49, %48, %46, %lean_inc.exit18
  br i1 %.not.i19, label %50, label %lean_dec.exit

50:                                               ; preds = %lean_inc.exit
  %51 = load i32, ptr %.0, align 4, !tbaa !8
  %52 = icmp sgt i32 %51, 1
  br i1 %52, label %53, label %55, !prof !13

53:                                               ; preds = %50
  %54 = add nsw i32 %51, -1
  store i32 %54, ptr %.0, align 4, !tbaa !8
  br label %lean_dec.exit

55:                                               ; preds = %50
  %.not.i = icmp eq i32 %51, 0
  br i1 %.not.i, label %lean_dec.exit, label %56

56:                                               ; preds = %55
  tail call void @lean_dec_ref_cold(ptr noundef nonnull %.0) #4
  br label %lean_dec.exit

lean_dec.exit:                                    ; preds = %56, %55, %53, %lean_inc.exit
  %57 = load ptr, ptr @l_Lean_Elab_ComputedFields_overrideCasesOn___closed__2, align 8, !tbaa !4
  %58 = tail call ptr @l_Lean_Name_append(ptr noundef %31, ptr noundef %57) #4
  %59 = tail call ptr @lean_array_push(ptr noundef %.017, ptr noundef %58) #4
  br label %12
}